target datalayout = "e-m:e-p270:32:32-p271:32:32-p272:64:64-i64:64-i128:128-f80:128-n8:16:32:64-S128"
target triple = "x86_64-pc-linux-gnu"

@.str.5 = private unnamed_addr constant [27 x i8] c"../openssl/test/rsa_test.c\00", align 1
@.str.6 = private unnamed_addr constant [4 x i8] c"num\00", align 1
@.str.8 = private unnamed_addr constant [2 x i8] c"0\00", align 1
@.str.9 = private unnamed_addr constant [6 x i8] c"ptext\00", align 1
@.str.10 = private unnamed_addr constant [9 x i8] c"ptext_ex\00", align 1
@test_rsa_oaep.ptext_ex = internal global [9 x i8] c"T\85\9B4,I\EA*\00", align 1

; Function Attrs: nounwind uwtable
define internal i32 @test_rsa_oaep(i32 noundef %0) #0 {
  %2 = alloca i32, align 4
  %3 = alloca i32, align 4
  %4 = alloca ptr, align 8
  %5 = alloca [256 x i8], align 16
  %6 = alloca [256 x i8], align 16
  %7 = alloca i32, align 4
  %8 = alloca i32, align 4
  %9 = alloca i32, align 4
  %10 = alloca i32, align 4
  store i32 %0, ptr %2, align 4, !tbaa !4
  call void @llvm.lifetime.start.p0(i64 4, ptr %3) #5
  store i32 0, ptr %3, align 4, !tbaa !4
  call void @llvm.lifetime.start.p0(i64 8, ptr %4) #5
  store ptr null, ptr %4, align 8, !tbaa !8
  call void @llvm.lifetime.start.p0(i64 256, ptr %5) #5
  call void @llvm.lifetime.start.p0(i64 256, ptr %6) #5
  call void @llvm.lifetime.start.p0(i64 4, ptr %7) #5
  call void @llvm.lifetime.start.p0(i64 4, ptr %8) #5
  store i32 0, ptr %8, align 4, !tbaa !4
  call void @llvm.lifetime.start.p0(i64 4, ptr %9) #5
  call void @llvm.lifetime.start.p0(i64 4, ptr %10) #5
  %11 = load i32, ptr %2, align 4, !tbaa !4
  %12 = getelementptr inbounds [256 x i8], ptr %6, i64 0, i64 0
  %13 = call i32 @test_rsa_simple(i32 noundef %11, i32 noundef 4, i32 noundef 4, i32 noundef 1, ptr noundef %12, ptr noundef %8, ptr noundef %4)
  %14 = icmp ne i32 %13, 0
  br i1 %14, label %16, label %15

15:                                               ; preds = %1
  br label %86

16:                                               ; preds = %1
  store i32 8, ptr %7, align 4, !tbaa !4
  %17 = load i32, ptr %8, align 4, !tbaa !4
  %18 = getelementptr inbounds [256 x i8], ptr %6, i64 0, i64 0
  %19 = getelementptr inbounds [256 x i8], ptr %5, i64 0, i64 0
  %20 = load ptr, ptr %4, align 8, !tbaa !8
  %21 = call i32 @RSA_private_decrypt(i32 noundef %17, ptr noundef %18, ptr noundef %19, ptr noundef %20, i32 noundef 4)
  store i32 %21, ptr %9, align 4, !tbaa !4
  %22 = load i32, ptr %9, align 4, !tbaa !4
  %23 = icmp sle i32 %22, 0
  br i1 %23, label %32, label %24

24:                                               ; preds = %16
  %25 = getelementptr inbounds [256 x i8], ptr %5, i64 0, i64 0
  %26 = load i32, ptr %9, align 4, !tbaa !4
  %27 = sext i32 %26 to i64
  %28 = load i32, ptr %7, align 4, !tbaa !4
  %29 = sext i32 %28 to i64
  %30 = call i32 @test_mem_eq(ptr noundef @.str.5, i32 noundef 302, ptr noundef @.str.9, ptr noundef @.str.10, ptr noundef %25, i64 noundef %27, ptr noundef @test_rsa_oaep.ptext_ex, i64 noundef %29)
  %31 = icmp ne i32 %30, 0
  br i1 %31, label %33, label %32

32:                                               ; preds = %24, %16
  br label %86

33:                                               ; preds = %24
  store i32 0, ptr %10, align 4, !tbaa !4
  br label %34

34:                                               ; preds = %63, %33
  %35 = load i32, ptr %10, align 4, !tbaa !4
  %36 = load i32, ptr %8, align 4, !tbaa !4
  %37 = icmp slt i32 %35, %36
  br i1 %37, label %38, label %66

38:                                               ; preds = %34
  %39 = load i32, ptr %10, align 4, !tbaa !4
  %40 = sext i32 %39 to i64
  %41 = getelementptr inbounds [256 x i8], ptr %6, i64 0, i64 %40
  %42 = load i8, ptr %41, align 1, !tbaa !11
  %43 = zext i8 %42 to i32
  %44 = xor i32 %43, 1
  %45 = trunc i32 %44 to i8
  store i8 %45, ptr %41, align 1, !tbaa !11
  %46 = load i32, ptr %8, align 4, !tbaa !4
  %47 = getelementptr inbounds [256 x i8], ptr %6, i64 0, i64 0
  %48 = getelementptr inbounds [256 x i8], ptr %5, i64 0, i64 0
  %49 = load ptr, ptr %4, align 8, !tbaa !8
  %50 = call i32 @RSA_private_decrypt(i32 noundef %46, ptr noundef %47, ptr noundef %48, ptr noundef %49, i32 noundef 4)
  store i32 %50, ptr %9, align 4, !tbaa !4
  %51 = load i32, ptr %9, align 4, !tbaa !4
  %52 = call i32 @test_int_le(ptr noundef @.str.5, i32 noundef 310, ptr noundef @.str.6, ptr noundef @.str.8, i32 noundef %51, i32 noundef 0)
  %53 = icmp ne i32 %52, 0
  br i1 %53, label %55, label %54

54:                                               ; preds = %38
  br label %86

55:                                               ; preds = %38
  %56 = load i32, ptr %10, align 4, !tbaa !4
  %57 = sext i32 %56 to i64
  %58 = getelementptr inbounds [256 x i8], ptr %6, i64 0, i64 %57
  %59 = load i8, ptr %58, align 1, !tbaa !11
  %60 = zext i8 %59 to i32
  %61 = xor i32 %60, 1
  %62 = trunc i32 %61 to i8
  store i8 %62, ptr %58, align 1, !tbaa !11
  br label %63

63:                                               ; preds = %55
  %64 = load i32, ptr %10, align 4, !tbaa !4
  %65 = add nsw i32 %64, 1
  store i32 %65, ptr %10, align 4, !tbaa !4
  br label %34, !llvm.loop !12

66:                                               ; preds = %34
  store i32 -1, ptr %10, align 4, !tbaa !4
  br label %67

67:                                               ; preds = %82, %66
  %68 = load i32, ptr %10, align 4, !tbaa !4
  %69 = load i32, ptr %8, align 4, !tbaa !4
  %70 = icmp slt i32 %68, %69
  br i1 %70, label %71, label %85

71:                                               ; preds = %67
  %72 = load i32, ptr %10, align 4, !tbaa !4
  %73 = getelementptr inbounds [256 x i8], ptr %6, i64 0, i64 0
  %74 = getelementptr inbounds [256 x i8], ptr %5, i64 0, i64 0
  %75 = load ptr, ptr %4, align 8, !tbaa !8
  %76 = call i32 @RSA_private_decrypt(i32 noundef %72, ptr noundef %73, ptr noundef %74, ptr noundef %75, i32 noundef 4)
  store i32 %76, ptr %9, align 4, !tbaa !4
  %77 = load i32, ptr %9, align 4, !tbaa !4
  %78 = call i32 @test_int_le(ptr noundef @.str.5, i32 noundef 319, ptr noundef @.str.6, ptr noundef @.str.8, i32 noundef %77, i32 noundef 0)
  %79 = icmp ne i32 %78, 0
  br i1 %79, label %81, label %80

80:                                               ; preds = %71
  br label %86

81:                                               ; preds = %71
  br label %82

82:                                               ; preds = %81
  %83 = load i32, ptr %10, align 4, !tbaa !4
  %84 = add nsw i32 %83, 1
  store i32 %84, ptr %10, align 4, !tbaa !4
  br label %67, !llvm.loop !14

85:                                               ; preds = %67
  store i32 1, ptr %3, align 4, !tbaa !4
  br label %86

86:                                               ; preds = %85, %80, %54, %32, %15
  %87 = load ptr, ptr %4, align 8, !tbaa !8
  call void @RSA_free(ptr noundef %87)
  %88 = load i32, ptr %3, align 4, !tbaa !4
  call void @llvm.lifetime.end.p0(i64 4, ptr %10) #5
  call void @llvm.lifetime.end.p0(i64 4, ptr %9) #5
  call void @llvm.lifetime.end.p0(i64 4, ptr %8) #5
  call void @llvm.lifetime.end.p0(i64 4, ptr %7) #5
  call void @llvm.lifetime.end.p0(i64 256, ptr %6) #5
  call void @llvm.lifetime.end.p0(i64 256, ptr %5) #5
  call void @llvm.lifetime.end.p0(i64 8, ptr %4) #5
  call void @llvm.lifetime.end.p0(i64 4, ptr %3) #5
  ret i32 %88
}